target datalayout = "e-m:e-p270:32:32-p271:32:32-p272:64:64-i64:64-i128:128-f80:128-n8:16:32:64-S128"
target triple = "x86_64-pc-linux-gnu"

%struct.dt_lib_module_t = type { %struct.dt_action_t, ptr, ptr, ptr, ptr, ptr, ptr, ptr, ptr, ptr, ptr, ptr, ptr, ptr, ptr, ptr, ptr, ptr, ptr, ptr, ptr, ptr, ptr, ptr, ptr, ptr, ptr, ptr, ptr, ptr, ptr, [128 x i8], ptr, ptr, i32, ptr, ptr, ptr, i32 }
%struct.dt_action_t = type { i32, ptr, ptr, ptr, ptr, ptr }
%struct.dt_lib_tagging_t = type { [1024 x i8], ptr, ptr, ptr, ptr, ptr, ptr, ptr, ptr, ptr, ptr, ptr, ptr, ptr, ptr, ptr, ptr, ptr, ptr, ptr, ptr, ptr, i32, i32, i32, i32, i32, ptr, ptr, %struct.anon, i32 }
%struct.anon = type { ptr, ptr, ptr, i32, i32, i32, i32, i32 }
%struct._GtkTreeIter = type { i32, ptr, ptr, ptr }

; Function Attrs: nounwind uwtable
define internal void @_pop_menu_dictionary_clipboard(ptr noundef %0, ptr noundef %1) #0 {
  %3 = alloca ptr, align 8
  %4 = alloca ptr, align 8
  %5 = alloca ptr, align 8
  %6 = alloca %struct._GtkTreeIter, align 8
  %7 = alloca ptr, align 8
  %8 = alloca ptr, align 8
  %9 = alloca ptr, align 8
  store ptr %0, ptr %3, align 8, !tbaa !108
  store ptr %1, ptr %4, align 8, !tbaa !6
  call void @llvm.lifetime.start.p0(i64 8, ptr %5) #11
  %10 = load ptr, ptr %4, align 8, !tbaa !6
  %11 = getelementptr inbounds nuw %struct.dt_lib_module_t, ptr %10, i32 0, i32 30
  %12 = load ptr, ptr %11, align 8, !tbaa !11
  store ptr %12, ptr %5, align 8, !tbaa !19
  call void @llvm.lifetime.start.p0(i64 32, ptr %6) #11
  call void @llvm.lifetime.start.p0(i64 8, ptr %7) #11
  %13 = load ptr, ptr %5, align 8, !tbaa !19
  %14 = getelementptr inbounds nuw %struct.dt_lib_tagging_t, ptr %13, i32 0, i32 4
  %15 = load ptr, ptr %14, align 8, !tbaa !40
  %16 = call i64 @gtk_tree_view_get_type() #12
  %17 = call ptr @g_type_check_instance_cast(ptr noundef %15, i64 noundef %16)
  %18 = call ptr @gtk_tree_view_get_model(ptr noundef %17)
  store ptr %18, ptr %7, align 8, !tbaa !36
  call void @llvm.lifetime.start.p0(i64 8, ptr %8) #11
  %19 = load ptr, ptr %5, align 8, !tbaa !19
  %20 = getelementptr inbounds nuw %struct.dt_lib_tagging_t, ptr %19, i32 0, i32 4
  %21 = load ptr, ptr %20, align 8, !tbaa !40
  %22 = call i64 @gtk_tree_view_get_type() #12
  %23 = call ptr @g_type_check_instance_cast(ptr noundef %21, i64 noundef %22)
  %24 = call ptr @gtk_tree_view_get_selection(ptr noundef %23)
  store ptr %24, ptr %8, align 8, !tbaa !59
  %25 = load ptr, ptr %8, align 8, !tbaa !59
  %26 = call i32 @gtk_tree_selection_get_selected(ptr noundef %25, ptr noundef %7, ptr noundef %6)
  %27 = icmp ne i32 %26, 0
  br i1 %27, label %28, label %34

28:                                               ; preds = %2
  call void @llvm.lifetime.start.p0(i64 8, ptr %9) #11
  %29 = load ptr, ptr %7, align 8, !tbaa !36
  call void (ptr, ptr, ...) @gtk_tree_model_get(ptr noundef %29, ptr noundef %6, i32 noundef 2, ptr noundef %9, i32 noundef -1)
  %30 = call ptr @gdk_display_get_default()
  %31 = call ptr @gtk_clipboard_get_default(ptr noundef %30)
  %32 = load ptr, ptr %9, align 8, !tbaa !49
  call void @gtk_clipboard_set_text(ptr noundef %31, ptr noundef %32, i32 noundef -1)
  %33 = load ptr, ptr %9, align 8, !tbaa !49
  call void @g_free(ptr noundef %33)
  call void @llvm.lifetime.end.p0(i64 8, ptr %9) #11
  br label %34

34:                                               ; preds = %28, %2
  call void @llvm.lifetime.end.p0(i64 8, ptr %8) #11
  call void @llvm.lifetime.end.p0(i64 8, ptr %7) #11
  call void @llvm.lifetime.end.p0(i64 32, ptr %6) #11
  call void @llvm.lifetime.end.p0(i64 8, ptr %5) #11
  ret void
}